; Function Attrs: mustprogress uwtable
define hidden void @_ZN7nanogui6Screen9nvg_flushEv(ptr nocapture noundef nonnull readonly align 8 dereferenceable(384) %0) local_unnamed_addr #3 align 2 {
  %2 = getelementptr inbounds i8, ptr %0, i64 152
  %3 = load ptr, ptr %2, align 8
  %4 = tail call ptr @nvgInternalParams(ptr noundef %3)
  %5 = getelementptr inbounds i8, ptr %4, i64 72
  %6 = load ptr, ptr %5, align 8
  %7 = load ptr, ptr %4, align 8
  tail call void %6(ptr noundef %7)
  %8 = getelementptr inbounds i8, ptr %4, i64 56
  %9 = load ptr, ptr %8, align 8
  %10 = load ptr, ptr %4, align 8
  %11 = getelementptr inbounds i8, ptr %0, i64 48
  %12 = load i32, ptr %11, align 8
  %13 = sitofp i32 %12 to float
  %14 = getelementptr inbounds i8, ptr %0, i64 52
  %15 = load i32, ptr %14, align 4
  %16 = sitofp i32 %15 to float
  %17 = getelementptr inbounds i8, ptr %0, i64 248
  %18 = load float, ptr %17, align 8
  tail call void %9(ptr noundef %10, float noundef %13, float noundef %16, float noundef %18)
  ret void
}